target datalayout = "e-m:e-p270:32:32-p271:32:32-p272:64:64-i64:64-i128:128-f80:128-n8:16:32:64-S128"
target triple = "x86_64-pc-linux-gnu"

%struct.luaL_Reg = type { ptr, ptr }

@.str.5 = private unnamed_addr constant [18 x i8] c"too many upvalues\00", align 1

; Function Attrs: nounwind uwtable
define dso_local void @luaL_setfuncs(ptr noundef %0, ptr noundef %1, i32 noundef %2) #0 {
  %4 = alloca ptr, align 8
  %5 = alloca ptr, align 8
  %6 = alloca i32, align 4
  %7 = alloca i32, align 4
  store ptr %0, ptr %4, align 8, !tbaa !4
  store ptr %1, ptr %5, align 8, !tbaa !47
  store i32 %2, ptr %6, align 4, !tbaa !9
  %8 = load ptr, ptr %4, align 8, !tbaa !4
  %9 = load i32, ptr %6, align 4, !tbaa !9
  call void @luaL_checkstack(ptr noundef %8, i32 noundef %9, ptr noundef @.str.5)
  br label %10

10:                                               ; preds = %40, %3
  %11 = load ptr, ptr %5, align 8, !tbaa !47
  %12 = getelementptr inbounds nuw %struct.luaL_Reg, ptr %11, i32 0, i32 0
  %13 = load ptr, ptr %12, align 8, !tbaa !49
  %14 = icmp ne ptr %13, null
  br i1 %14, label %15, label %43

15:                                               ; preds = %10
  call void @llvm.lifetime.start.p0(i64 4, ptr %7) #9
  store i32 0, ptr %7, align 4, !tbaa !9
  br label %16

16:                                               ; preds = %24, %15
  %17 = load i32, ptr %7, align 4, !tbaa !9
  %18 = load i32, ptr %6, align 4, !tbaa !9
  %19 = icmp slt i32 %17, %18
  br i1 %19, label %20, label %27

20:                                               ; preds = %16
  %21 = load ptr, ptr %4, align 8, !tbaa !4
  %22 = load i32, ptr %6, align 4, !tbaa !9
  %23 = sub nsw i32 0, %22
  call void @lua_pushvalue(ptr noundef %21, i32 noundef %23)
  br label %24

24:                                               ; preds = %20
  %25 = load i32, ptr %7, align 4, !tbaa !9
  %26 = add nsw i32 %25, 1
  store i32 %26, ptr %7, align 4, !tbaa !9
  br label %16, !llvm.loop !52

27:                                               ; preds = %16
  %28 = load ptr, ptr %4, align 8, !tbaa !4
  %29 = load ptr, ptr %5, align 8, !tbaa !47
  %30 = getelementptr inbounds nuw %struct.luaL_Reg, ptr %29, i32 0, i32 1
  %31 = load ptr, ptr %30, align 8, !tbaa !53
  %32 = load i32, ptr %6, align 4, !tbaa !9
  call void @lua_pushcclosure(ptr noundef %28, ptr noundef %31, i32 noundef %32)
  %33 = load ptr, ptr %4, align 8, !tbaa !4
  %34 = load i32, ptr %6, align 4, !tbaa !9
  %35 = add nsw i32 %34, 2
  %36 = sub nsw i32 0, %35
  %37 = load ptr, ptr %5, align 8, !tbaa !47
  %38 = getelementptr inbounds nuw %struct.luaL_Reg, ptr %37, i32 0, i32 0
  %39 = load ptr, ptr %38, align 8, !tbaa !49
  call void @lua_setfield(ptr noundef %33, i32 noundef %36, ptr noundef %39)
  call void @llvm.lifetime.end.p0(i64 4, ptr %7) #9
  br label %40

40:                                               ; preds = %27
  %41 = load ptr, ptr %5, align 8, !tbaa !47
  %42 = getelementptr inbounds nuw %struct.luaL_Reg, ptr %41, i32 1
  store ptr %42, ptr %5, align 8, !tbaa !47
  br label %10, !llvm.loop !54

43:                                               ; preds = %10
  %44 = load ptr, ptr %4, align 8, !tbaa !4
  %45 = load i32, ptr %6, align 4, !tbaa !9
  %46 = sub nsw i32 0, %45
  %47 = sub nsw i32 %46, 1
  call void @lua_settop(ptr noundef %44, i32 noundef %47)
  ret void
}

; Function Attrs: nounwind uwtable
define internal i32 @libsize(ptr noundef %0) #0 {
  %2 = alloca ptr, align 8
  %3 = alloca i32, align 4
  store ptr %0, ptr %2, align 8, !tbaa !47
  call void @llvm.lifetime.start.p0(i64 4, ptr %3) #9
  store i32 0, ptr %3, align 4, !tbaa !9
  br label %4

4:                                                ; preds = %17, %1
  %5 = load ptr, ptr %2, align 8, !tbaa !47
  %6 = icmp ne ptr %5, null
  br i1 %6, label %7, label %12

7:                                                ; preds = %4
  %8 = load ptr, ptr %2, align 8, !tbaa !47
  %9 = getelementptr inbounds nuw %struct.luaL_Reg, ptr %8, i32 0, i32 0
  %10 = load ptr, ptr %9, align 8, !tbaa !49
  %11 = icmp ne ptr %10, null
  br label %12

12:                                               ; preds = %7, %4
  %13 = phi i1 [ false, %4 ], [ %11, %7 ]
  br i1 %13, label %14, label %20

14:                                               ; preds = %12
  %15 = load i32, ptr %3, align 4, !tbaa !9
  %16 = add nsw i32 %15, 1
  store i32 %16, ptr %3, align 4, !tbaa !9
  br label %17

17:                                               ; preds = %14
  %18 = load ptr, ptr %2, align 8, !tbaa !47
  %19 = getelementptr inbounds nuw %struct.luaL_Reg, ptr %18, i32 1
  store ptr %19, ptr %2, align 8, !tbaa !47
  br label %4, !llvm.loop !51

20:                                               ; preds = %12
  %21 = load i32, ptr %3, align 4, !tbaa !9
  call void @llvm.lifetime.end.p0(i64 4, ptr %3) #9
  ret i32 %21
}

; Function Attrs: nounwind uwtable
define dso_local void @luaL_openlib(ptr noundef %0, ptr noundef %1, ptr noundef %2, i32 noundef %3) #0 {
  %5 = alloca ptr, align 8
  %6 = alloca ptr, align 8
  %7 = alloca ptr, align 8
  %8 = alloca i32, align 4
  store ptr %0, ptr %5, align 8, !tbaa !4
  store ptr %1, ptr %6, align 8, !tbaa !11
  store ptr %2, ptr %7, align 8, !tbaa !47
  store i32 %3, ptr %8, align 4, !tbaa !9
  %9 = load ptr, ptr %6, align 8, !tbaa !11
  %10 = icmp ne ptr %9, null
  br i1 %10, label %11, label %20

11:                                               ; preds = %4
  %12 = load ptr, ptr %5, align 8, !tbaa !4
  %13 = load ptr, ptr %6, align 8, !tbaa !11
  %14 = load ptr, ptr %7, align 8, !tbaa !47
  %15 = call i32 @libsize(ptr noundef %14)
  call void @luaL_pushmodule(ptr noundef %12, ptr noundef %13, i32 noundef %15)
  %16 = load ptr, ptr %5, align 8, !tbaa !4
  %17 = load i32, ptr %8, align 4, !tbaa !9
  %18 = add nsw i32 %17, 1
  %19 = sub nsw i32 0, %18
  call void @lua_insert(ptr noundef %16, i32 noundef %19)
  br label %20

20:                                               ; preds = %11, %4
  %21 = load ptr, ptr %7, align 8, !tbaa !47
  %22 = icmp ne ptr %21, null
  br i1 %22, label %23, label %27

23:                                               ; preds = %20
  %24 = load ptr, ptr %5, align 8, !tbaa !4
  %25 = load ptr, ptr %7, align 8, !tbaa !47
  %26 = load i32, ptr %8, align 4, !tbaa !9
  call void @luaL_setfuncs(ptr noundef %24, ptr noundef %25, i32 noundef %26)
  br label %32

27:                                               ; preds = %20
  %28 = load ptr, ptr %5, align 8, !tbaa !4
  %29 = load i32, ptr %8, align 4, !tbaa !9
  %30 = sub nsw i32 0, %29
  %31 = sub nsw i32 %30, 1
  call void @lua_settop(ptr noundef %28, i32 noundef %31)
  br label %32

32:                                               ; preds = %27, %23
  ret void
}

; Function Attrs: nounwind uwtable
define dso_local void @luaL_register(ptr noundef %0, ptr noundef %1, ptr noundef %2) #0 {
  %4 = alloca ptr, align 8
  %5 = alloca ptr, align 8
  %6 = alloca ptr, align 8
  store ptr %0, ptr %4, align 8, !tbaa !4
  store ptr %1, ptr %5, align 8, !tbaa !11
  store ptr %2, ptr %6, align 8, !tbaa !47
  %7 = load ptr, ptr %4, align 8, !tbaa !4
  %8 = load ptr, ptr %5, align 8, !tbaa !11
  %9 = load ptr, ptr %6, align 8, !tbaa !47
  call void @luaL_openlib(ptr noundef %7, ptr noundef %8, ptr noundef %9, i32 noundef 0)
  ret void
}