; Function Attrs: nounwind uwtable
define dso_local void @luaL_register(ptr noundef %0, ptr noundef %1, ptr noundef readonly captures(address_is_null) %2) local_unnamed_addr #0 {
  %.not.i = icmp eq ptr %1, null
  br i1 %.not.i, label %9, label %4

4:                                                ; preds = %3
  %.not6.i.i = icmp eq ptr %2, null
  br i1 %.not6.i.i, label %libsize.exit.i, label %.lr.ph.i.preheader.i

.lr.ph.i.preheader.i:                             ; preds = %4
  %5 = load ptr, ptr %2, align 8, !tbaa !44
  %.not5.i13.i = icmp eq ptr %5, null
  br i1 %.not5.i13.i, label %libsize.exit.i, label %.lr.ph.i.i

.lr.ph.i.i:                                       ; preds = %.lr.ph.i.preheader.i, %.lr.ph.i.i
  %.047.i15.i = phi ptr [ %7, %.lr.ph.i.i ], [ %2, %.lr.ph.i.preheader.i ]
  %.08.i14.i = phi i32 [ %6, %.lr.ph.i.i ], [ 0, %.lr.ph.i.preheader.i ]
  %6 = add nuw nsw i32 %.08.i14.i, 1
  %7 = getelementptr inbounds nuw i8, ptr %.047.i15.i, i64 16
  %8 = load ptr, ptr %7, align 8, !tbaa !44
  %.not5.i.i = icmp eq ptr %8, null
  br i1 %.not5.i.i, label %libsize.exit.i, label %.lr.ph.i.i

libsize.exit.i:                                   ; preds = %.lr.ph.i.i, %.lr.ph.i.preheader.i, %4
  %.0.lcssa.i.i = phi i32 [ 0, %4 ], [ 0, %.lr.ph.i.preheader.i ], [ %6, %.lr.ph.i.i ]
  tail call void @luaL_pushmodule(ptr noundef %0, ptr noundef nonnull %1, i32 noundef %.0.lcssa.i.i)
  tail call void @lua_insert(ptr noundef %0, i32 noundef -1) #13
  br label %9

9:                                                ; preds = %libsize.exit.i, %3
  %.not12.i = icmp eq ptr %2, null
  br i1 %.not12.i, label %luaL_openlib.exit, label %10

10:                                               ; preds = %9
  tail call void @luaL_checkstack(ptr noundef %0, i32 noundef 0, ptr noundef nonnull @.str.5) #13
  %11 = load ptr, ptr %2, align 8, !tbaa !44
  %.not19.i = icmp eq ptr %11, null
  br i1 %.not19.i, label %luaL_openlib.exit, label %.preheader.i

.preheader.i:                                     ; preds = %10, %.preheader.i
  %.01620.i = phi ptr [ %15, %.preheader.i ], [ %2, %10 ]
  %12 = getelementptr inbounds nuw i8, ptr %.01620.i, i64 8
  %13 = load ptr, ptr %12, align 8, !tbaa !47
  tail call void @lua_pushcclosure(ptr noundef %0, ptr noundef %13, i32 noundef 0) #13
  %14 = load ptr, ptr %.01620.i, align 8, !tbaa !44
  tail call void @lua_setfield(ptr noundef %0, i32 noundef -2, ptr noundef %14) #13
  %15 = getelementptr inbounds nuw i8, ptr %.01620.i, i64 16
  %16 = load ptr, ptr %15, align 8, !tbaa !44
  %.not.i3 = icmp eq ptr %16, null
  br i1 %.not.i3, label %luaL_openlib.exit, label %.preheader.i, !llvm.loop !48

luaL_openlib.exit:                                ; preds = %.preheader.i, %9, %10
  tail call void @lua_settop(ptr noundef %0, i32 noundef -1) #13
  ret void
}